; ModuleID = '33/1876.c'
source_filename = "33/1876.c"
target datalayout = "e-m:e-p270:32:32-p271:32:32-p272:64:64-i64:64-f80:128-n8:16:32:64-S128"
target triple = "x86_64-pc-linux-gnu"

@.str = private unnamed_addr constant [4 x i8] c"%d\0A\00", align 1
@.str.1 = private unnamed_addr constant [3 x i8] c"%c\00", align 1
@.str.2 = private unnamed_addr constant [4 x i8] c"%c\0A\00", align 1

; Function Attrs: noinline nounwind uwtable
define dso_local i32 @main() #0 {
  %1 = alloca i32, align 4
  %2 = alloca i32, align 4
  %3 = alloca i32, align 4
  %4 = alloca i32, align 4
  %5 = alloca i32, align 4
  %6 = alloca i32, align 4
  %7 = alloca [255 x i8], align 16
  store i32 0, i32* %1, align 4
  %8 = call i32 (i8*, ...) @__isoc99_scanf(i8* getelementptr inbounds ([4 x i8], [4 x i8]* @.str, i64 0, i64 0), i32* %2)
  store i32 0, i32* %5, align 4
  br label %9

9:                                                ; preds = %90, %0
  %10 = load i32, i32* %5, align 4
  %11 = load i32, i32* %2, align 4
  %12 = icmp slt i32 %10, %11
  br i1 %12, label %13, label %93

13:                                               ; preds = %9
  %14 = getelementptr inbounds [255 x i8], [255 x i8]* %7, i64 0, i64 0
  %15 = call i32 (i8*, ...) bitcast (i32 (...)* @gets to i32 (i8*, ...)*)(i8* %14)
  %16 = getelementptr inbounds [255 x i8], [255 x i8]* %7, i64 0, i64 0
  %17 = call i64 @strlen(i8* %16) #3
  %18 = trunc i64 %17 to i32
  store i32 %18, i32* %3, align 4
  store i32 0, i32* %4, align 4
  br label %19

19:                                               ; preds = %63, %13
  %20 = load i32, i32* %4, align 4
  %21 = load i32, i32* %3, align 4
  %22 = icmp slt i32 %20, %21
  br i1 %22, label %23, label %66

23:                                               ; preds = %19
  %24 = load i32, i32* %4, align 4
  %25 = sext i32 %24 to i64
  %26 = getelementptr inbounds [255 x i8], [255 x i8]* %7, i64 0, i64 %25
  %27 = load i8, i8* %26, align 1
  %28 = sext i8 %27 to i32
  %29 = icmp eq i32 %28, 65
  br i1 %29, label %30, label %34

30:                                               ; preds = %23
  %31 = load i32, i32* %4, align 4
  %32 = sext i32 %31 to i64
  %33 = getelementptr inbounds [255 x i8], [255 x i8]* %7, i64 0, i64 %32
  store i8 84, i8* %33, align 1
  br label %62

34:                                               ; preds = %23
  %35 = load i32, i32* %4, align 4
  %36 = sext i32 %35 to i64
  %37 = getelementptr inbounds [255 x i8], [255 x i8]* %7, i64 0, i64 %36
  %38 = load i8, i8* %37, align 1
  %39 = sext i8 %38 to i32
  %40 = icmp eq i32 %39, 84
  br i1 %40, label %41, label %45

41:                                               ; preds = %34
  %42 = load i32, i32* %4, align 4
  %43 = sext i32 %42 to i64
  %44 = getelementptr inbounds [255 x i8], [255 x i8]* %7, i64 0, i64 %43
  store i8 65, i8* %44, align 1
  br label %61

45:                                               ; preds = %34
  %46 = load i32, i32* %4, align 4
  %47 = sext i32 %46 to i64
  %48 = getelementptr inbounds [255 x i8], [255 x i8]* %7, i64 0, i64 %47
  %49 = load i8, i8* %48, align 1
  %50 = sext i8 %49 to i32
  %51 = icmp eq i32 %50, 67
  br i1 %51, label %52, label %56

52:                                               ; preds = %45
  %53 = load i32, i32* %4, align 4
  %54 = sext i32 %53 to i64
  %55 = getelementptr inbounds [255 x i8], [255 x i8]* %7, i64 0, i64 %54
  store i8 71, i8* %55, align 1
  br label %60

56:                                               ; preds = %45
  %57 = load i32, i32* %4, align 4
  %58 = sext i32 %57 to i64
  %59 = getelementptr inbounds [255 x i8], [255 x i8]* %7, i64 0, i64 %58
  store i8 67, i8* %59, align 1
  br label %60

60:                                               ; preds = %56, %52
  br label %61

61:                                               ; preds = %60, %41
  br label %62

62:                                               ; preds = %61, %30
  br label %63

63:                                               ; preds = %62
  %64 = load i32, i32* %4, align 4
  %65 = add nsw i32 %64, 1
  store i32 %65, i32* %4, align 4
  br label %19

66:                                               ; preds = %19
  store i32 0, i32* %6, align 4
  br label %67

67:                                               ; preds = %79, %66
  %68 = load i32, i32* %6, align 4
  %69 = load i32, i32* %3, align 4
  %70 = sub nsw i32 %69, 1
  %71 = icmp slt i32 %68, %70
  br i1 %71, label %72, label %82

72:                                               ; preds = %67
  %73 = load i32, i32* %6, align 4
  %74 = sext i32 %73 to i64
  %75 = getelementptr inbounds [255 x i8], [255 x i8]* %7, i64 0, i64 %74
  %76 = load i8, i8* %75, align 1
  %77 = sext i8 %76 to i32
  %78 = call i32 (i8*, ...) @printf(i8* getelementptr inbounds ([3 x i8], [3 x i8]* @.str.1, i64 0, i64 0), i32 %77)
  br label %79

79:                                               ; preds = %72
  %80 = load i32, i32* %6, align 4
  %81 = add nsw i32 %80, 1
  store i32 %81, i32* %6, align 4
  br label %67

82:                                               ; preds = %67
  %83 = load i32, i32* %3, align 4
  %84 = sub nsw i32 %83, 1
  %85 = sext i32 %84 to i64
  %86 = getelementptr inbounds [255 x i8], [255 x i8]* %7, i64 0, i64 %85
  %87 = load i8, i8* %86, align 1
  %88 = sext i8 %87 to i32
  %89 = call i32 (i8*, ...) @printf(i8* getelementptr inbounds ([4 x i8], [4 x i8]* @.str.2, i64 0, i64 0), i32 %88)
  br label %90

90:                                               ; preds = %82
  %91 = load i32, i32* %5, align 4
  %92 = add nsw i32 %91, 1
  store i32 %92, i32* %5, align 4
  br label %9

93:                                               ; preds = %9
  %94 = load i32, i32* %1, align 4
  ret i32 %94
}

declare dso_local i32 @__isoc99_scanf(i8*, ...) #1

declare dso_local i32 @gets(...) #1

; Function Attrs: nounwind readonly
declare dso_local i64 @strlen(i8*) #2

declare dso_local i32 @printf(i8*, ...) #1


!llvm.module.flags = !{!0}
!llvm.ident = !{!1}

!0 = !{i32 1, !"wchar_size", i32 4}
!1 = !{!"clang version 10.0.0-4ubuntu1 "}
